target datalayout = "e-m:e-p270:32:32-p271:32:32-p272:64:64-i64:64-i128:128-f80:128-n8:16:32:64-S128"
target triple = "x86_64-pc-linux-gnu"

%struct.UserData_ = type { double, i32, double, double, double, i32, i32, i32, i32 }

@.str.45 = private unnamed_addr constant [48 x i8] c"\0AParticle traveling on the unit circle example\0A\00", align 1
@.str.46 = private unnamed_addr constant [47 x i8] c"---------------------------------------------\0A\00", align 1
@.str.47 = private unnamed_addr constant [20 x i8] c"alpha      = %0.4e\0A\00", align 1
@.str.48 = private unnamed_addr constant [17 x i8] c"num orbits = %d\0A\00", align 1
@.str.49 = private unnamed_addr constant [17 x i8] c"rtol       = %g\0A\00", align 1
@.str.50 = private unnamed_addr constant [17 x i8] c"atol       = %g\0A\00", align 1
@.str.51 = private unnamed_addr constant [17 x i8] c"proj sol   = %d\0A\00", align 1
@.str.52 = private unnamed_addr constant [17 x i8] c"proj err   = %d\0A\00", align 1
@.str.53 = private unnamed_addr constant [17 x i8] c"nout       = %d\0A\00", align 1
@.str.54 = private unnamed_addr constant [17 x i8] c"tstop      = %d\0A\00", align 1

; Function Attrs: nounwind uwtable
define internal i32 @PrintUserData(ptr noundef %0) #0 {
  %2 = alloca i32, align 4
  %3 = alloca ptr, align 8
  store ptr %0, ptr %3, align 8, !tbaa !13
  %4 = load ptr, ptr %3, align 8, !tbaa !13
  %5 = icmp eq ptr %4, null
  br i1 %5, label %6, label %7

6:                                                ; preds = %1
  store i32 -1, ptr %2, align 4
  br label %44

7:                                                ; preds = %1
  %8 = call i32 (ptr, ...) @printf(ptr noundef @.str.45)
  %9 = call i32 (ptr, ...) @printf(ptr noundef @.str.46)
  %10 = load ptr, ptr %3, align 8, !tbaa !13
  %11 = getelementptr inbounds nuw %struct.UserData_, ptr %10, i32 0, i32 0
  %12 = load double, ptr %11, align 8, !tbaa !43
  %13 = call i32 (ptr, ...) @printf(ptr noundef @.str.47, double noundef %12)
  %14 = load ptr, ptr %3, align 8, !tbaa !13
  %15 = getelementptr inbounds nuw %struct.UserData_, ptr %14, i32 0, i32 1
  %16 = load i32, ptr %15, align 8, !tbaa !34
  %17 = call i32 (ptr, ...) @printf(ptr noundef @.str.48, i32 noundef %16)
  %18 = call i32 (ptr, ...) @printf(ptr noundef @.str.46)
  %19 = load ptr, ptr %3, align 8, !tbaa !13
  %20 = getelementptr inbounds nuw %struct.UserData_, ptr %19, i32 0, i32 3
  %21 = load double, ptr %20, align 8, !tbaa !28
  %22 = call i32 (ptr, ...) @printf(ptr noundef @.str.49, double noundef %21)
  %23 = load ptr, ptr %3, align 8, !tbaa !13
  %24 = getelementptr inbounds nuw %struct.UserData_, ptr %23, i32 0, i32 4
  %25 = load double, ptr %24, align 8, !tbaa !30
  %26 = call i32 (ptr, ...) @printf(ptr noundef @.str.50, double noundef %25)
  %27 = load ptr, ptr %3, align 8, !tbaa !13
  %28 = getelementptr inbounds nuw %struct.UserData_, ptr %27, i32 0, i32 5
  %29 = load i32, ptr %28, align 8, !tbaa !31
  %30 = call i32 (ptr, ...) @printf(ptr noundef @.str.51, i32 noundef %29)
  %31 = load ptr, ptr %3, align 8, !tbaa !13
  %32 = getelementptr inbounds nuw %struct.UserData_, ptr %31, i32 0, i32 6
  %33 = load i32, ptr %32, align 4, !tbaa !32
  %34 = call i32 (ptr, ...) @printf(ptr noundef @.str.52, i32 noundef %33)
  %35 = load ptr, ptr %3, align 8, !tbaa !13
  %36 = getelementptr inbounds nuw %struct.UserData_, ptr %35, i32 0, i32 8
  %37 = load i32, ptr %36, align 4, !tbaa !33
  %38 = call i32 (ptr, ...) @printf(ptr noundef @.str.53, i32 noundef %37)
  %39 = load ptr, ptr %3, align 8, !tbaa !13
  %40 = getelementptr inbounds nuw %struct.UserData_, ptr %39, i32 0, i32 7
  %41 = load i32, ptr %40, align 8, !tbaa !36
  %42 = call i32 (ptr, ...) @printf(ptr noundef @.str.54, i32 noundef %41)
  %43 = call i32 (ptr, ...) @printf(ptr noundef @.str.46)
  store i32 0, ptr %2, align 4
  br label %44

44:                                               ; preds = %7, %6
  %45 = load i32, ptr %2, align 4
  ret i32 %45
}