; Function Attrs: nofree nounwind uwtable
define internal fastcc range(i32 -1, 1) i32 @PrintUserData(ptr noundef readonly captures(address_is_null) %0) unnamed_addr #4 {
  %2 = icmp eq ptr %0, null
  br i1 %2, label %27, label %3

3:                                                ; preds = %1
  %puts = tail call i32 @puts(ptr nonnull dereferenceable(1) @str.1)
  %puts10 = tail call i32 @puts(ptr nonnull dereferenceable(1) @str.4)
  %4 = load double, ptr %0, align 8, !tbaa !13
  %5 = tail call i32 (ptr, ...) @printf(ptr noundef nonnull dereferenceable(1) @.str.47, double noundef %4)
  %6 = getelementptr inbounds nuw i8, ptr %0, i64 8
  %7 = load i32, ptr %6, align 8, !tbaa !16
  %8 = tail call i32 (ptr, ...) @printf(ptr noundef nonnull dereferenceable(1) @.str.48, i32 noundef %7)
  %puts11 = tail call i32 @puts(ptr nonnull dereferenceable(1) @str.4)
  %9 = getelementptr inbounds nuw i8, ptr %0, i64 24
  %10 = load double, ptr %9, align 8, !tbaa !18
  %11 = tail call i32 (ptr, ...) @printf(ptr noundef nonnull dereferenceable(1) @.str.49, double noundef %10)
  %12 = getelementptr inbounds nuw i8, ptr %0, i64 32
  %13 = load double, ptr %12, align 8, !tbaa !19
  %14 = tail call i32 (ptr, ...) @printf(ptr noundef nonnull dereferenceable(1) @.str.50, double noundef %13)
  %15 = getelementptr inbounds nuw i8, ptr %0, i64 40
  %16 = load i32, ptr %15, align 8, !tbaa !20
  %17 = tail call i32 (ptr, ...) @printf(ptr noundef nonnull dereferenceable(1) @.str.51, i32 noundef %16)
  %18 = getelementptr inbounds nuw i8, ptr %0, i64 44
  %19 = load i32, ptr %18, align 4, !tbaa !21
  %20 = tail call i32 (ptr, ...) @printf(ptr noundef nonnull dereferenceable(1) @.str.52, i32 noundef %19)
  %21 = getelementptr inbounds nuw i8, ptr %0, i64 52
  %22 = load i32, ptr %21, align 4, !tbaa !23
  %23 = tail call i32 (ptr, ...) @printf(ptr noundef nonnull dereferenceable(1) @.str.53, i32 noundef %22)
  %24 = getelementptr inbounds nuw i8, ptr %0, i64 48
  %25 = load i32, ptr %24, align 8, !tbaa !22
  %26 = tail call i32 (ptr, ...) @printf(ptr noundef nonnull dereferenceable(1) @.str.54, i32 noundef %25)
  %puts12 = tail call i32 @puts(ptr nonnull dereferenceable(1) @str.4)
  br label %27

27:                                               ; preds = %1, %3
  %.0 = phi i32 [ 0, %3 ], [ -1, %1 ]
  ret i32 %.0
}